target datalayout = "e-m:e-p270:32:32-p271:32:32-p272:64:64-i64:64-i128:128-f80:128-n8:16:32:64-S128"
target triple = "x86_64-pc-linux-gnu"

%struct.redisReply = type { i32, i64, double, i64, ptr, [4 x i8], i64, ptr }
%struct.listIter = type { ptr, i32 }
%struct.clusterManagerNode = type { ptr, ptr, ptr, i32, i32, i64, i64, i64, i32, ptr, ptr, i32, [16384 x i8], i32, i32, ptr, ptr, ptr, i32, i32, float, i32 }
%struct.listNode = type { ptr, ptr, ptr }

@.str.168 = private unnamed_addr constant [35 x i8] c"Node %s:%d replied with error:\0A%s\0A\00", align 1
@.str.267 = private unnamed_addr constant [27 x i8] c"CLUSTER COUNTKEYSINSLOT %d\00", align 1

; Function Attrs: nounwind uwtable
define internal i32 @clusterManagerCheckRedisReply(ptr noundef %0, ptr noundef %1, ptr noundef %2) #0 {
  %4 = alloca i32, align 4
  %5 = alloca ptr, align 8
  %6 = alloca ptr, align 8
  %7 = alloca ptr, align 8
  %8 = alloca i32, align 4
  %9 = alloca i32, align 4
  store ptr %0, ptr %5, align 8, !tbaa !88
  store ptr %1, ptr %6, align 8, !tbaa !46
  store ptr %2, ptr %7, align 8, !tbaa !42
  call void @llvm.lifetime.start.p0(i64 4, ptr %8) #15
  store i32 0, ptr %8, align 4, !tbaa !10
  %10 = load ptr, ptr %6, align 8, !tbaa !46
  %11 = icmp ne ptr %10, null
  br i1 %11, label %12, label %18

12:                                               ; preds = %3
  %13 = load ptr, ptr %6, align 8, !tbaa !46
  %14 = getelementptr inbounds nuw %struct.redisReply, ptr %13, i32 0, i32 0
  %15 = load i32, ptr %14, align 8, !tbaa !68
  %16 = icmp eq i32 %15, 6
  %17 = zext i1 %16 to i32
  store i32 %17, ptr %8, align 4, !tbaa !10
  br i1 %16, label %18, label %54

18:                                               ; preds = %12, %3
  %19 = load i32, ptr %8, align 4, !tbaa !10
  %20 = icmp ne i32 %19, 0
  br i1 %20, label %21, label %53

21:                                               ; preds = %18
  %22 = load ptr, ptr %7, align 8, !tbaa !42
  %23 = icmp ne ptr %22, null
  br i1 %23, label %24, label %42

24:                                               ; preds = %21
  %25 = load ptr, ptr %6, align 8, !tbaa !46
  %26 = getelementptr inbounds nuw %struct.redisReply, ptr %25, i32 0, i32 3
  %27 = load i64, ptr %26, align 8, !tbaa !76
  %28 = add i64 %27, 1
  %29 = mul i64 %28, 1
  %30 = call noalias ptr @zmalloc(i64 noundef %29) #18
  %31 = load ptr, ptr %7, align 8, !tbaa !42
  store ptr %30, ptr %31, align 8, !tbaa !5
  %32 = load ptr, ptr %7, align 8, !tbaa !42
  %33 = load ptr, ptr %32, align 8, !tbaa !5
  %34 = load ptr, ptr %6, align 8, !tbaa !46
  %35 = getelementptr inbounds nuw %struct.redisReply, ptr %34, i32 0, i32 4
  %36 = load ptr, ptr %35, align 8, !tbaa !54
  %37 = load ptr, ptr %6, align 8, !tbaa !46
  %38 = getelementptr inbounds nuw %struct.redisReply, ptr %37, i32 0, i32 3
  %39 = load i64, ptr %38, align 8, !tbaa !76
  %40 = add i64 %39, 1
  %41 = call i64 @redis_strlcpy(ptr noundef %33, ptr noundef %36, i64 noundef %40)
  br label %52

42:                                               ; preds = %21
  %43 = load ptr, ptr %5, align 8, !tbaa !88
  %44 = getelementptr inbounds nuw %struct.clusterManagerNode, ptr %43, i32 0, i32 2
  %45 = load ptr, ptr %44, align 8, !tbaa !90
  %46 = load ptr, ptr %5, align 8, !tbaa !88
  %47 = getelementptr inbounds nuw %struct.clusterManagerNode, ptr %46, i32 0, i32 3
  %48 = load i32, ptr %47, align 8, !tbaa !93
  %49 = load ptr, ptr %6, align 8, !tbaa !46
  %50 = getelementptr inbounds nuw %struct.redisReply, ptr %49, i32 0, i32 4
  %51 = load ptr, ptr %50, align 8, !tbaa !54
  call void (i32, ptr, ...) @clusterManagerLog(i32 noundef 3, ptr noundef @.str.168, ptr noundef %45, i32 noundef %48, ptr noundef %51)
  br label %52

52:                                               ; preds = %42, %24
  br label %53

53:                                               ; preds = %52, %18
  store i32 0, ptr %4, align 4
  store i32 1, ptr %9, align 4
  br label %55

54:                                               ; preds = %12
  store i32 1, ptr %4, align 4
  store i32 1, ptr %9, align 4
  br label %55

55:                                               ; preds = %54, %53
  call void @llvm.lifetime.end.p0(i64 4, ptr %8) #15
  %56 = load i32, ptr %4, align 4
  ret i32 %56
}

; Function Attrs: nounwind uwtable
define internal ptr @clusterManagerGetNodeWithMostKeysInSlot(ptr noundef %0, i32 noundef %1, ptr noundef %2) #0 {
  %4 = alloca ptr, align 8
  %5 = alloca i32, align 4
  %6 = alloca ptr, align 8
  %7 = alloca ptr, align 8
  %8 = alloca i32, align 4
  %9 = alloca %struct.listIter, align 8
  %10 = alloca ptr, align 8
  %11 = alloca ptr, align 8
  %12 = alloca i32, align 4
  %13 = alloca ptr, align 8
  %14 = alloca i32, align 4
  store ptr %0, ptr %4, align 8, !tbaa !145
  store i32 %1, ptr %5, align 4, !tbaa !10
  store ptr %2, ptr %6, align 8, !tbaa !42
  call void @llvm.lifetime.start.p0(i64 8, ptr %7) #15
  store ptr null, ptr %7, align 8, !tbaa !88
  call void @llvm.lifetime.start.p0(i64 4, ptr %8) #15
  store i32 0, ptr %8, align 4, !tbaa !10
  call void @llvm.lifetime.start.p0(i64 16, ptr %9) #15
  call void @llvm.lifetime.start.p0(i64 8, ptr %10) #15
  %15 = load ptr, ptr %4, align 8, !tbaa !145
  call void @listRewind(ptr noundef %15, ptr noundef %9)
  %16 = load ptr, ptr %6, align 8, !tbaa !42
  %17 = icmp ne ptr %16, null
  br i1 %17, label %18, label %20

18:                                               ; preds = %3
  %19 = load ptr, ptr %6, align 8, !tbaa !42
  store ptr null, ptr %19, align 8, !tbaa !5
  br label %20

20:                                               ; preds = %18, %3
  br label %21

21:                                               ; preds = %96, %94, %20
  %22 = call ptr @listNext(ptr noundef %9)
  store ptr %22, ptr %10, align 8, !tbaa !103
  %23 = icmp ne ptr %22, null
  br i1 %23, label %24, label %97

24:                                               ; preds = %21
  call void @llvm.lifetime.start.p0(i64 8, ptr %11) #15
  %25 = load ptr, ptr %10, align 8, !tbaa !103
  %26 = getelementptr inbounds nuw %struct.listNode, ptr %25, i32 0, i32 2
  %27 = load ptr, ptr %26, align 8, !tbaa !104
  store ptr %27, ptr %11, align 8, !tbaa !88
  %28 = load ptr, ptr %11, align 8, !tbaa !88
  %29 = getelementptr inbounds nuw %struct.clusterManagerNode, ptr %28, i32 0, i32 8
  %30 = load i32, ptr %29, align 8, !tbaa !148
  %31 = and i32 %30, 2
  %32 = icmp ne i32 %31, 0
  br i1 %32, label %38, label %33

33:                                               ; preds = %24
  %34 = load ptr, ptr %11, align 8, !tbaa !88
  %35 = getelementptr inbounds nuw %struct.clusterManagerNode, ptr %34, i32 0, i32 10
  %36 = load ptr, ptr %35, align 8, !tbaa !120
  %37 = icmp ne ptr %36, null
  br i1 %37, label %38, label %39

38:                                               ; preds = %33, %24
  store i32 2, ptr %12, align 4
  br label %94, !llvm.loop !502

39:                                               ; preds = %33
  call void @llvm.lifetime.start.p0(i64 8, ptr %13) #15
  %40 = load ptr, ptr %11, align 8, !tbaa !88
  %41 = getelementptr inbounds nuw %struct.clusterManagerNode, ptr %40, i32 0, i32 0
  %42 = load ptr, ptr %41, align 8, !tbaa !126
  %43 = load i32, ptr %5, align 4, !tbaa !10
  %44 = call ptr (ptr, ptr, ...) @redisCommand(ptr noundef %42, ptr noundef @.str.267, i32 noundef %43)
  store ptr %44, ptr %13, align 8, !tbaa !46
  call void @llvm.lifetime.start.p0(i64 4, ptr %14) #15
  %45 = load ptr, ptr %11, align 8, !tbaa !88
  %46 = load ptr, ptr %13, align 8, !tbaa !46
  %47 = load ptr, ptr %6, align 8, !tbaa !42
  %48 = call i32 @clusterManagerCheckRedisReply(ptr noundef %45, ptr noundef %46, ptr noundef %47)
  store i32 %48, ptr %14, align 4, !tbaa !10
  %49 = load i32, ptr %14, align 4, !tbaa !10
  %50 = icmp ne i32 %49, 0
  br i1 %50, label %51, label %68

51:                                               ; preds = %39
  %52 = load ptr, ptr %13, align 8, !tbaa !46
  %53 = getelementptr inbounds nuw %struct.redisReply, ptr %52, i32 0, i32 1
  %54 = load i64, ptr %53, align 8, !tbaa !191
  %55 = load i32, ptr %8, align 4, !tbaa !10
  %56 = sext i32 %55 to i64
  %57 = icmp sgt i64 %54, %56
  br i1 %57, label %61, label %58

58:                                               ; preds = %51
  %59 = load ptr, ptr %7, align 8, !tbaa !88
  %60 = icmp eq ptr %59, null
  br i1 %60, label %61, label %67

61:                                               ; preds = %58, %51
  %62 = load ptr, ptr %13, align 8, !tbaa !46
  %63 = getelementptr inbounds nuw %struct.redisReply, ptr %62, i32 0, i32 1
  %64 = load i64, ptr %63, align 8, !tbaa !191
  %65 = trunc i64 %64 to i32
  store i32 %65, ptr %8, align 4, !tbaa !10
  %66 = load ptr, ptr %11, align 8, !tbaa !88
  store ptr %66, ptr %7, align 8, !tbaa !88
  br label %67

67:                                               ; preds = %61, %58
  br label %68

68:                                               ; preds = %67, %39
  %69 = load ptr, ptr %13, align 8, !tbaa !46
  %70 = icmp ne ptr %69, null
  br i1 %70, label %71, label %73

71:                                               ; preds = %68
  %72 = load ptr, ptr %13, align 8, !tbaa !46
  call void @freeReplyObject(ptr noundef %72)
  br label %73

73:                                               ; preds = %71, %68
  %74 = load i32, ptr %14, align 4, !tbaa !10
  %75 = icmp ne i32 %74, 0
  br i1 %75, label %92, label %76

76:                                               ; preds = %73
  %77 = load ptr, ptr %6, align 8, !tbaa !42
  %78 = icmp ne ptr %77, null
  br i1 %78, label %79, label %91

79:                                               ; preds = %76
  %80 = load ptr, ptr %6, align 8, !tbaa !42
  %81 = load ptr, ptr %80, align 8, !tbaa !5
  %82 = icmp ne ptr %81, null
  br i1 %82, label %83, label %91

83:                                               ; preds = %79
  %84 = load ptr, ptr %11, align 8, !tbaa !88
  %85 = getelementptr inbounds nuw %struct.clusterManagerNode, ptr %84, i32 0, i32 2
  %86 = load ptr, ptr %85, align 8, !tbaa !90
  %87 = load ptr, ptr %11, align 8, !tbaa !88
  %88 = getelementptr inbounds nuw %struct.clusterManagerNode, ptr %87, i32 0, i32 3
  %89 = load i32, ptr %88, align 8, !tbaa !93
  %90 = load ptr, ptr %6, align 8, !tbaa !42
  call void (i32, ptr, ...) @clusterManagerLog(i32 noundef 3, ptr noundef @.str.168, ptr noundef %86, i32 noundef %89, ptr noundef %90)
  br label %91

91:                                               ; preds = %83, %79, %76
  store ptr null, ptr %7, align 8, !tbaa !88
  store i32 3, ptr %12, align 4
  br label %93

92:                                               ; preds = %73
  store i32 0, ptr %12, align 4
  br label %93

93:                                               ; preds = %92, %91
  call void @llvm.lifetime.end.p0(i64 4, ptr %14) #15
  call void @llvm.lifetime.end.p0(i64 8, ptr %13) #15
  br label %94

94:                                               ; preds = %93, %38
  call void @llvm.lifetime.end.p0(i64 8, ptr %11) #15
  %95 = load i32, ptr %12, align 4
  switch i32 %95, label %99 [
    i32 0, label %96
    i32 2, label %21
    i32 3, label %97
  ]

96:                                               ; preds = %94
  br label %21, !llvm.loop !502

97:                                               ; preds = %94, %21
  %98 = load ptr, ptr %7, align 8, !tbaa !88
  store i32 1, ptr %12, align 4
  call void @llvm.lifetime.end.p0(i64 8, ptr %10) #15
  call void @llvm.lifetime.end.p0(i64 16, ptr %9) #15
  call void @llvm.lifetime.end.p0(i64 4, ptr %8) #15
  call void @llvm.lifetime.end.p0(i64 8, ptr %7) #15
  ret ptr %98

99:                                               ; preds = %94
  unreachable
}