; Function Attrs: nounwind uwtable
define internal fastcc ptr @clusterManagerGetNodeWithMostKeysInSlot(ptr noundef %0, i32 noundef %1) unnamed_addr #0 {
  %3 = alloca %struct.listIter, align 8
  call void @llvm.lifetime.start.p0(i64 16, ptr nonnull %3) #33
  call void @listRewind(ptr noundef %0, ptr noundef nonnull %3) #33
  %4 = call ptr @listNext(ptr noundef nonnull %3) #33
  %.not42 = icmp eq ptr %4, null
  br i1 %.not42, label %.thread35, label %.lr.ph

.lr.ph:                                           ; preds = %2, %32
  %5 = phi ptr [ %33, %32 ], [ %4, %2 ]
  %.044 = phi ptr [ %.2, %32 ], [ null, %2 ]
  %.02743 = phi i32 [ %.128, %32 ], [ 0, %2 ]
  %6 = getelementptr inbounds nuw i8, ptr %5, i64 16
  %7 = load ptr, ptr %6, align 8, !tbaa !96
  %8 = getelementptr inbounds nuw i8, ptr %7, i64 56
  %9 = load i32, ptr %8, align 8, !tbaa !129
  %10 = and i32 %9, 2
  %.not36 = icmp eq i32 %10, 0
  br i1 %.not36, label %11, label %32, !llvm.loop !483

11:                                               ; preds = %.lr.ph
  %12 = getelementptr inbounds nuw i8, ptr %7, i64 72
  %13 = load ptr, ptr %12, align 8, !tbaa !107
  %.not37 = icmp eq ptr %13, null
  br i1 %.not37, label %14, label %32, !llvm.loop !483

14:                                               ; preds = %11
  %15 = load ptr, ptr %7, align 8, !tbaa !82
  %16 = call ptr (ptr, ptr, ...) @redisCommand(ptr noundef %15, ptr noundef nonnull @.str.267, i32 noundef %1) #33
  %.not.i = icmp eq ptr %16, null
  br i1 %.not.i, label %.thread35, label %17

17:                                               ; preds = %14
  %18 = load i32, ptr %16, align 8, !tbaa !56
  %.not19.i = icmp eq i32 %18, 6
  br i1 %.not19.i, label %.thread24, label %25

.thread24:                                        ; preds = %17
  %19 = getelementptr inbounds nuw i8, ptr %7, i64 16
  %20 = load ptr, ptr %19, align 8, !tbaa !74
  %21 = getelementptr inbounds nuw i8, ptr %7, i64 24
  %22 = load i32, ptr %21, align 8, !tbaa !77
  %23 = getelementptr inbounds nuw i8, ptr %16, i64 32
  %24 = load ptr, ptr %23, align 8, !tbaa !36
  call void (i32, ptr, ...) @clusterManagerLog(i32 noundef 3, ptr noundef nonnull @.str.168, ptr noundef %20, i32 noundef %22, ptr noundef %24)
  call void @freeReplyObject(ptr noundef nonnull %16) #33
  br label %.thread35

25:                                               ; preds = %17
  %26 = getelementptr inbounds nuw i8, ptr %16, i64 8
  %27 = load i64, ptr %26, align 8, !tbaa !167
  %28 = sext i32 %.02743 to i64
  %29 = icmp sgt i64 %27, %28
  %30 = icmp eq ptr %.044, null
  %or.cond = select i1 %29, i1 true, i1 %30
  %31 = trunc i64 %27 to i32
  %spec.select = select i1 %or.cond, i32 %31, i32 %.02743
  %spec.select40 = select i1 %or.cond, ptr %7, ptr %.044
  call void @freeReplyObject(ptr noundef nonnull %16) #33
  br label %32

32:                                               ; preds = %25, %.lr.ph, %11
  %.128 = phi i32 [ %.02743, %11 ], [ %.02743, %.lr.ph ], [ %spec.select, %25 ]
  %.2 = phi ptr [ %.044, %11 ], [ %.044, %.lr.ph ], [ %spec.select40, %25 ]
  %33 = call ptr @listNext(ptr noundef nonnull %3) #33
  %.not = icmp eq ptr %33, null
  br i1 %.not, label %.thread35, label %.lr.ph

.thread35:                                        ; preds = %32, %14, %2, %.thread24
  %.1 = phi ptr [ null, %.thread24 ], [ null, %2 ], [ %.2, %32 ], [ null, %14 ]
  call void @llvm.lifetime.end.p0(i64 16, ptr nonnull %3) #33
  ret ptr %.1
}